; Function Attrs: mustprogress nofree norecurse nosync nounwind sspstrong willreturn memory(argmem: read) uwtable
define internal range(i64 0, 5) i64 @pm_encoding_gb18030_char_width(ptr noundef readonly captures(none) %0, i64 noundef %1) #2 {
  %3 = load i8, ptr %0, align 1, !tbaa !7
  %4 = icmp sgt i8 %3, -1
  br i1 %4, label %26, label %5

5:                                                ; preds = %2
  %6 = icmp slt i64 %1, 2
  br i1 %6, label %.thread, label %switch.early.test

switch.early.test:                                ; preds = %5
  switch i8 %3, label %7 [
    i8 -1, label %11
    i8 -128, label %11
  ]

7:                                                ; preds = %switch.early.test
  %8 = getelementptr i8, ptr %0, i64 1
  %9 = load i8, ptr %8, align 1, !tbaa !7
  %.fr = freeze i8 %9
  %10 = icmp ult i8 %.fr, 64
  br i1 %10, label %11, label %switch.early.test34

switch.early.test34:                              ; preds = %7
  switch i8 %.fr, label %26 [
    i8 -1, label %11
    i8 127, label %11
  ]

11:                                               ; preds = %switch.early.test34, %switch.early.test34, %7, %switch.early.test, %switch.early.test
  %12 = icmp samesign ugt i64 %1, 3
  br i1 %12, label %13, label %.thread

13:                                               ; preds = %11
  switch i8 %3, label %14 [
    i8 -1, label %.thread
    i8 -128, label %.thread
  ]

14:                                               ; preds = %13
  %15 = getelementptr i8, ptr %0, i64 1
  %16 = load i8, ptr %15, align 1, !tbaa !7
  %17 = add i8 %16, -48
  %or.cond31 = icmp ult i8 %17, 10
  br i1 %or.cond31, label %18, label %.thread

18:                                               ; preds = %14
  %19 = getelementptr i8, ptr %0, i64 2
  %20 = load i8, ptr %19, align 1, !tbaa !7
  %21 = add i8 %20, 1
  %or.cond32 = icmp ult i8 %21, -126
  br i1 %or.cond32, label %.thread, label %22

22:                                               ; preds = %18
  %23 = getelementptr i8, ptr %0, i64 3
  %24 = load i8, ptr %23, align 1, !tbaa !7
  %25 = add i8 %24, -48
  %or.cond33 = icmp ult i8 %25, 10
  br i1 %or.cond33, label %26, label %.thread

.thread:                                          ; preds = %13, %13, %5, %22, %18, %14, %11
  br label %26

26:                                               ; preds = %switch.early.test34, %22, %2, %.thread
  %.0 = phi i64 [ 0, %.thread ], [ 1, %2 ], [ 2, %switch.early.test34 ], [ 4, %22 ]
  ret i64 %.0
}